(dp1
S'output'
p2
S"<type 'exceptions.NameError'> name 'id_lista_lavori' is not defined"
p3
sS'layer'
p4
S'/home/vale/projects/MICROCARPGESTIONALE/web2py/applications/gestionale/views/default/ore_dipendenti.html'
p5
sS'code'
p6
S'response.write(\'<!DOCTYPE html>\\n<!--[if (gt IE 9)|!(IE)]><!--> <html class="no-js" lang="\', escape=False)\nresponse.write(T.accepted_language or \'en\')\nresponse.write(\'"> <!--<![endif]-->\\n  <head>\\n    <meta charset="utf-8">\\n    <!-- www.phpied.com/conditional-comments-block-downloads/ -->\\n    <!-- Always force latest IE rendering engine\\n         (even in intranet) & Chrome Frame\\n         Remove this if you use the .htaccess -->\\n    <meta http-equiv="X-UA-Compatible" content="IE=edge\', escape=False)\nresponse.write(not request.is_local and \',chrome=1\' or \'\')\nresponse.write(\'">\\n    <!--  Mobile Viewport Fix\\n          j.mp/mobileviewport & davidbcalhoun.com/2010/viewport-metatag\\n          device-width: Occupy full width of the screen in its current orientation\\n          initial-scale = 1.0 retains dimensions instead of zooming out if page height > device height\\n          user-scalable = yes allows the user to zoom in -->\\n    <meta name="viewport" content="width=device-width, initial-scale=1.0">\\n    <title>\', escape=False)\nresponse.write(response.title or request.application)\nresponse.write(\'</title>\\n    <!-- http://dev.w3.org/html5/markup/meta.name.html -->\\n    <meta name="application-name" content="\', escape=False)\nresponse.write(request.application)\nresponse.write(\'">\\n    <!-- Speaking of Google, don\\\'t forget to set your site up:\\n         http://google.com/webmasters -->\\n    <meta name="google-site-verification" content="">\\n    <!-- include stylesheets -->\\n   \\n     <link rel="stylesheet" href="\', escape=False)\nresponse.write(URL(\'static\',\'css/jquery.dataTables.min.css\'))\nresponse.write(\'"/>\\n    <link rel="stylesheet" href="\', escape=False)\nresponse.write(URL(\'static\',\'css/bootstrap.min.css\'))\nresponse.write(\'"/>\\n    <link rel="stylesheet" href="\', escape=False)\nresponse.write(URL(\'static\',\'css/web2py-bootstrap3.css\'))\nresponse.write(\'"/>\\n    <link rel="shortcut icon" href="\', escape=False)\nresponse.write(URL(\'static\',\'images/favicon.ico\'))\nresponse.write(\'" type="image/x-icon">\\n    <link rel="apple-touch-icon" href="\', escape=False)\nresponse.write(URL(\'static\',\'images/favicon.png\'))\nresponse.write(\'">\\n    <!-- All JavaScript at the bottom, except for Modernizr which enables\\n         HTML5 elements & feature detects -->\\n    <script src="\', escape=False)\nresponse.write(URL(\'static\',\'js/modernizr-2.8.3.min.js\'))\nresponse.write(\'"></script>\\n    <!--[if lt IE 9]>\\n        <script src="\', escape=False)\nresponse.write(URL(\'static\',\'js/respond-1.4.2.min.js\'))\nresponse.write(\'"></script>\\n        <![endif]-->\\n    <!-- Favicons -->\\n    \', escape=False)\nresponse.write(\'<script type="text/javascript"><!--\\r\\n    // These variables are used by the web2py_ajax_init function in web2py_ajax.js (which is loaded below).\\r\\n    \', escape=False)\nresponse.write(ASSIGNJS(\nw2p_ajax_confirm_message = T(\'Are you sure you want to delete this object?\'),\nw2p_ajax_disable_with_message = T(\'Working...\'),\nw2p_ajax_date_format = T(\'%d/%m/%Y\'),\nw2p_ajax_datetime_format = T(\'%d/%m/%Y\'),\najax_error_500 = T.M(\'An error occured, please [[reload %s]] the page\') % URL(args=request.args, vars=request.get_vars)\n))\nresponse.write(\'\\r\\n    //--></script>\\r\\n\', escape=False)\nresponse.files.insert(0,URL(\'static\',\'js/jquery.js\'))\nresponse.files.insert(1,URL(\'static\',\'css/calendar.css\'))\nresponse.files.insert(2,URL(\'static\',\'js/calendar.js\'))\nresponse.files.insert(3,URL(\'static\',\'js/web2py.js\'))\nresponse.include_meta()\nresponse.include_files()\nresponse.write(\'\\r\\n\', escape=False)\nresponse.write(\' <!-- this includes jquery.js, calendar.js/.css and web2py.js -->\\n    \', escape=False)\nresponse.write(\'\\n    \', escape=False)\n# using sidebars need to know what sidebar you want to use\nmc0 = \'col-md-12\'\nmc1 = \'col-md-9\'\nmc2 = \'col-md-6\'\nleft_sidebar_enabled = globals().get(\'left_sidebar_enabled\', False)\nright_sidebar_enabled = globals().get(\'right_sidebar_enabled\', False)\nmiddle_column = {0: mc0, 1: mc1, 2: mc2}[\n(left_sidebar_enabled and 1 or 0)+(right_sidebar_enabled and 1 or 0)]\nresponse.write(\'\\n  </head>\\n  <body>\\n    <!--[if lt IE 8]><p class="browserupgrade">You are using an <strong>outdated</strong> browser. Please <a href="http://browsehappy.com/">upgrade your browser</a> to improve your experience.</p><![endif]-->\\n    <div class="w2p_flash alert alert-dismissable">\', escape=False)\nresponse.write(response.flash or \'\')\nresponse.write(\'</div>\\n    <!-- Navbar ======================================= -->\\n    <nav class="navbar navbar-default navbar-fixed-top" role="navigation">\\n      <div class="container-fluid">\\n        <div class="navbar-header">\\n          <button type="button" class="navbar-toggle" data-toggle="collapse" data-target=".navbar-collapse">\\n            <span class="sr-only">Toggle navigation</span>\\n            <span class="icon-bar"></span>\\n            <span class="icon-bar"></span>\\n            <span class="icon-bar"></span>\\n          </button>\\n        \\n        </div>\\n        <div class="collapse navbar-collapse navbar-ex1-collapse">\\n          <ul class="nav navbar-nav navbar-right">\\n            \', escape=False)\nresponse.write(\'auth\' in globals() and auth.navbar(\'Welcome\',mode=\'dropdown\') or \'\')\nresponse.write(\'\\n          </ul>\\n          \', escape=False)\nif response.menu:\n    response.write(\'\\n          \', escape=False)\n    response.write(MENU(response.menu, _class=\'nav navbar-nav\',li_class=\'dropdown\',ul_class=\'dropdown-menu\'))\n    response.write(\'\\n          \', escape=False)\n    pass\nresponse.write(\'\\n        </div>\\n      </div>\\n    </nav>\\n    <!-- Masthead ===================================== -->    \\n    \', escape=False)\nresponse.write(\'\\n    \', escape=False)\nresponse.write(\'\\n    <!-- Main ========================================= -->\\n    <!-- Begin page content -->\\n    <div class="container-fluid main-container">\\n      \', escape=False)\nif left_sidebar_enabled:\n    response.write(\'\\n        <div class="col-md-3 left-sidebar">\\n            \', escape=False)\n    response.write(\'\\n            <h3>Left Sidebar</h3>\\n            <p></p>\\n            \', escape=False)\n    response.write(\'\\n        </div>\\n      \', escape=False)\n    pass\nresponse.write(\'\\n\\n      <div class="\', escape=False)\nresponse.write(middle_column)\nresponse.write(\'">\\n        \', escape=False)\nresponse.write(\'\\n        \', escape=False)\nresponse.write(\'\\n<script src="\', escape=False)\nresponse.write(URL(\'static\',\'js/dropzone.js\'))\nresponse.write(\'"></script>\\n<h1>Ore dipendenti</h1>\\n\\n<div class="panel panel-default">\\n    <h3>Carica il file excel proveniente dal timbratore</h3>\\n    <div class="panel-body">\\n        <!-- Csv loader -->\\n        <div class="dropzone" id="dropid"></div>\\n    </div>\\n</div>  \\n\\n<script>\\n$(function() {\\n\\n//web2py_component("\', escape=False)\nresponse.write(URL(\'default\', \'lavorazioni_commessa\'))\nresponse.write(\'?id=\', escape=False)\nresponse.write(id_lista_lavori)\nresponse.write(\'",target=\\\'lavorazioni_commessa\\\');\\n//web2py_component("\', escape=False)\nresponse.write(URL(\'default\', \'articoli_in_commessa\'))\nresponse.write(\'?id=\', escape=False)\nresponse.write(id_lista_lavori)\nresponse.write(\'",target=\\\'articoli_commessa\\\');\\n\\n$(".dropzone").dropzone({\\n\\nurl: "\', escape=False)\nresponse.write(URL(\'default\',\'upload_csv\'))\nresponse.write(\'",\\nheight: 100,\\nwidth: 200,\\nallowedFileTypes:       \\\'txt\\\',\\ntext:                   \\\'Carica qui il file\\\',\\nuploadMode:             \\\'single\\\',\\nfilesName:              \\\'csvfile\\\',\\nprogressBarWidth:150,\\nsuccess: reloadArticoli\\n\\n            \\n})\\n\\ncalcolaTotaleCostoOreLavorate()\\n\\n\\n})\\n</script>\', escape=False)\nresponse.write(\'\\n        \', escape=False)\nresponse.write(\'\\n      </div>\\n\\n      \', escape=False)\nif right_sidebar_enabled:\n    response.write(\'\\n        <div class="col-md-3">\\n            \', escape=False)\n    response.write(\'\\n            <h3>Right Sidebar</h3>\\n            <p></p>\\n            \', escape=False)\n    response.write(\'\\n        </div>\\n      \', escape=False)\n    pass\nresponse.write(\'\\n\\n    </div>\\n\\n    \', escape=False)\nresponse.write(\' <!-- this is default footer -->      \\n    <footer class="footer">\\n      <div class="container-fluid">\\n        <div class="copyright pull-left">\', escape=False)\nresponse.write(T(\'Copyright\'))\nresponse.write(\' &#169; \', escape=False)\nresponse.write(request.now.year)\nresponse.write(\'</div>\\n          <div id="poweredBy" class="pull-right">\\n            \', escape=False)\nresponse.write(T(\'Powered by\'))\nresponse.write(\'\\n            Valentino Uberti\\n          </div>\\n      </div>\\n    </footer>\\n    \', escape=False)\nresponse.write(\'\\n    <!-- The javascript =============================== -->\\n    <script src="\', escape=False)\nresponse.write(URL(\'static\',\'js/bootstrap.min.js\'))\nresponse.write(\'"></script>\\n    <script src="\', escape=False)\nresponse.write(URL(\'static\',\'js/web2py-bootstrap3.js\'))\nresponse.write(\'"></script>\\n      \\n    <script src="\', escape=False)\nresponse.write(URL(\'static\',\'js/underscore-min.js\'))\nresponse.write(\'"></script>\\n<script src="\', escape=False)\nresponse.write(URL(\'static\',\'justoop/justoop.0.1.5.js\'))\nresponse.write(\'"></script>\\n<script type="text/javascript">\\n    justoop.data_name_attr = "name";\\n    justoop.data_type_attr = "type";\\n    justoop.data_instance_attr = "component";\\n    justoop.attachedClass = "cmp-attached";\\n    justoop.initializedClass = "initialized";\\n    justoop.noInitializedClass = "no-initialized";\\n</script>\\n\\n\\n<script src="\', escape=False)\nresponse.write(URL(\'static\',\'justoop/extras/rpc/rpc.js\'))\nresponse.write(\'"></script>\\n<script src="\', escape=False)\nresponse.write(URL(\'static\',\'js/gestionale.js\'))\nresponse.write(\'"></script>\\n<script src="\', escape=False)\nresponse.write(URL(\'static\',\'js/produzione.js\'))\nresponse.write(\'"></script>\\n<script>\\n    \\n   \\n    \\n    \\n\\n     function return_price()\\n    {\\n        \\n         if (($("#righe_in_ordine_cliente_codice_articolo").val().length > 0) && ($("#righe_in_ordine_cliente_quantita").val().length > 0))\\n         {\\n             a = $("#righe_in_ordine_cliente_codice_articolo").val()\\n             b = $("#righe_in_ordine_cliente_quantita").val()\\n             \\n         justoop.gestionaleRpc.returnPrice(a,b,listino,cliente).success(function _(data)\\n                                                       \\n            {\\n                $("#righe_in_ordine_cliente_prezzo").val(data.result);\\n            });\\n         \\n         }\\n    \\n    \\n    }\\n    \\n    \\n     function return_price_fornitori()\\n    {\\n        \\n         if (($("#righe_in_ordine_fornitore_codice_articolo").val().length > 0) && ($("#righe_in_ordine_fornitore_quantita").val().length > 0))\\n         {\\n             a = $("#righe_in_ordine_fornitore_codice_articolo").val()\\n             b = $("#righe_in_ordine_fornitore_quantita").val()\\n             \\n         justoop.gestionaleRpc.returnPriceFornitori(a,b,listino,cliente).success(function _(data)\\n                                                       \\n            {\\n                $("#righe_in_ordine_fornitore_prezzo").val(data.result);\\n            });\\n         \\n         }\\n    \\n    \\n    }\\n    \\nfunction searchPianoDeiConti()\\n{\\n    val = $("#piano_dei_conti_search").val();\\n       \\njustoop.gestionaleRpc.searchPianoDeiConti(val).success(function _(data)\\n                                                       \\n{\\n    $("#piano_dei_conti_codice_gruppo").val(data.result[0]);\\n     $("#piano_dei_conti_descrizione_gruppo").val(data.result[1]);\\n    \\n     $("#piano_dei_conti_codice_conto").val(data.result[2]);\\n     $("#piano_dei_conti_descrizione_conto").val(data.result[3]);\\n    \\n     $("#piano_dei_conti_codice_sottoconto").val(data.result[4]);\\n     $("#piano_dei_conti_descrizione_sottoconto").val(data.result[5]);\\n    \\n    \\n});\\n}\\n      </script>\\n      \\n      \\n    \', escape=False)\nresponse.write(\'\\n    \', escape=False)\nif response.google_analytics_id:\n    response.write(\'\\n    <!-- Analytics ==================================== -->\\n    <script src="\', escape=False)\n    response.write(URL(\'static\',\'js/analytics.min.js\'))\n    response.write(\'"></script>\\n    <script type="text/javascript">\\n      analytics.initialize({\\n      \\\'Google Analytics\\\':{trackingId:\\\'\', escape=False)\n    response.write(response.google_analytics_id)\n    response.write("\'}\\n      });\\n    </script>\\n    ", escape=False)\n    pass\nresponse.write(\'\\n    <!-- Share ============================y============ -->\\n    <script src="\', escape=False)\nresponse.write(URL(\'static\',\'js/share.js\',vars=dict(static=URL(\'static\',\'images\'))))\nresponse.write(\'"></script>\\n  </body>\\n</html>\\n\', escape=False)'
p7
sS'snapshot'
p8
(dp9
sS'traceback'
p10
S'Traceback (most recent call last):\n  File "/home/vale/projects/MICROCARPGESTIONALE/web2py/gluon/restricted.py", line 227, in restricted\n    exec ccode in environment\n  File "/home/vale/projects/MICROCARPGESTIONALE/web2py/applications/gestionale/views/default/ore_dipendenti.html", line 77, in <module>\nNameError: name \'id_lista_lavori\' is not defined\n'
p11
s.